target datalayout = "e-m:e-p270:32:32-p271:32:32-p272:64:64-i64:64-i128:128-f80:128-n8:16:32:64-S128"
target triple = "x86_64-pc-linux-gnu"

%struct.parse = type { ptr, ptr, i32, ptr, i64, i64, i32, ptr, [10 x i64], [10 x i64] }

; Function Attrs: nounwind uwtable
define internal void @bothcases(ptr noundef %0, i32 noundef %1) #0 {
  %3 = alloca ptr, align 8
  %4 = alloca i32, align 4
  %5 = alloca ptr, align 8
  %6 = alloca ptr, align 8
  %7 = alloca [3 x i8], align 1
  store ptr %0, ptr %3, align 8
  store i32 %1, ptr %4, align 4
  %8 = load ptr, ptr %3, align 8
  %9 = getelementptr inbounds %struct.parse, ptr %8, i32 0, i32 0
  %10 = load ptr, ptr %9, align 8
  store ptr %10, ptr %5, align 8
  %11 = load ptr, ptr %3, align 8
  %12 = getelementptr inbounds %struct.parse, ptr %11, i32 0, i32 1
  %13 = load ptr, ptr %12, align 8
  store ptr %13, ptr %6, align 8
  %14 = load i32, ptr %4, align 4
  %15 = trunc i32 %14 to i8
  %16 = zext i8 %15 to i32
  store i32 %16, ptr %4, align 4
  %17 = getelementptr inbounds [3 x i8], ptr %7, i64 0, i64 0
  %18 = load ptr, ptr %3, align 8
  %19 = getelementptr inbounds %struct.parse, ptr %18, i32 0, i32 0
  store ptr %17, ptr %19, align 8
  %20 = getelementptr inbounds [3 x i8], ptr %7, i64 0, i64 0
  %21 = getelementptr inbounds i8, ptr %20, i64 2
  %22 = load ptr, ptr %3, align 8
  %23 = getelementptr inbounds %struct.parse, ptr %22, i32 0, i32 1
  store ptr %21, ptr %23, align 8
  %24 = load i32, ptr %4, align 4
  %25 = trunc i32 %24 to i8
  %26 = getelementptr inbounds [3 x i8], ptr %7, i64 0, i64 0
  store i8 %25, ptr %26, align 1
  %27 = getelementptr inbounds [3 x i8], ptr %7, i64 0, i64 1
  store i8 93, ptr %27, align 1
  %28 = getelementptr inbounds [3 x i8], ptr %7, i64 0, i64 2
  store i8 0, ptr %28, align 1
  %29 = load ptr, ptr %3, align 8
  call void @p_bracket(ptr noundef %29)
  %30 = load ptr, ptr %5, align 8
  %31 = load ptr, ptr %3, align 8
  %32 = getelementptr inbounds %struct.parse, ptr %31, i32 0, i32 0
  store ptr %30, ptr %32, align 8
  %33 = load ptr, ptr %6, align 8
  %34 = load ptr, ptr %3, align 8
  %35 = getelementptr inbounds %struct.parse, ptr %34, i32 0, i32 1
  store ptr %33, ptr %35, align 8
  ret void
}