; Function Attrs: nounwind uwtable
define internal fastcc void @bothcases(ptr noundef %0, i32 noundef %1) unnamed_addr #0 {
  %3 = alloca [3 x i8], align 1
  %4 = getelementptr inbounds i8, ptr %0, i64 8
  %5 = trunc i32 %1 to i8
  %6 = getelementptr inbounds i8, ptr %3, i64 2
  store i8 %5, ptr %3, align 1
  %7 = getelementptr inbounds i8, ptr %3, i64 1
  store i8 93, ptr %7, align 1
  store i8 0, ptr %6, align 1
  %8 = load <2 x ptr>, ptr %0, align 8
  store ptr %3, ptr %0, align 8
  store ptr %6, ptr %4, align 8
  call fastcc void @p_bracket(ptr noundef nonnull %0)
  store <2 x ptr> %8, ptr %0, align 8
  ret void
}